target datalayout = "e-m:e-p270:32:32-p271:32:32-p272:64:64-i64:64-i128:128-f80:128-n8:16:32:64-S128"
target triple = "x86_64-pc-linux-gnu"

%struct.PageHeaderData = type { %struct.PageXLogRecPtr, i16, i16, i16, i16, i16, i16, i32, [0 x %struct.ItemIdData] }
%struct.PageXLogRecPtr = type { i32, i32 }
%struct.ItemIdData = type { i32 }
%struct.BTPageOpaqueData = type { i32, i32, i32, i16, i16 }
%struct.BTMetaPageData = type { i32, i32, i32, i32, i32, i32, i32, double, i8 }

@.str = private unnamed_addr constant [36 x i8] c"finishing incomplete split of %u/%u\00", align 1
@.str.1 = private unnamed_addr constant [12 x i8] c"nbtinsert.c\00", align 1
@__func__._bt_finish_split = private unnamed_addr constant [17 x i8] c"_bt_finish_split\00", align 1
@LocalBufferBlockPointers = external global ptr, align 8
@BufferBlocks = external global ptr, align 8

; Function Attrs: inlinehint nounwind uwtable
define internal ptr @BufferGetBlock(i32 noundef %0) #3 {
  %2 = alloca ptr, align 8
  %3 = alloca i32, align 4
  store i32 %0, ptr %3, align 4
  %4 = load i32, ptr %3, align 4
  %5 = icmp slt i32 %4, 0
  br i1 %5, label %6, label %14

6:                                                ; preds = %1
  %7 = load ptr, ptr @LocalBufferBlockPointers, align 8
  %8 = load i32, ptr %3, align 4
  %9 = sub i32 0, %8
  %10 = sub i32 %9, 1
  %11 = sext i32 %10 to i64
  %12 = getelementptr inbounds ptr, ptr %7, i64 %11
  %13 = load ptr, ptr %12, align 8
  store ptr %13, ptr %2, align 8
  br label %21

14:                                               ; preds = %1
  %15 = load ptr, ptr @BufferBlocks, align 8
  %16 = load i32, ptr %3, align 4
  %17 = sub i32 %16, 1
  %18 = sext i32 %17 to i64
  %19 = mul i64 %18, 8192
  %20 = getelementptr inbounds nuw i8, ptr %15, i64 %19
  store ptr %20, ptr %2, align 8
  br label %21

21:                                               ; preds = %14, %6
  %22 = load ptr, ptr %2, align 8
  ret ptr %22
}

; Function Attrs: inlinehint nounwind uwtable
define internal ptr @PageGetContents(ptr noundef %0) #3 {
  %2 = alloca ptr, align 8
  store ptr %0, ptr %2, align 8
  %3 = load ptr, ptr %2, align 8
  %4 = getelementptr inbounds nuw i8, ptr %3, i64 24
  ret ptr %4
}

; Function Attrs: inlinehint nounwind uwtable
define internal void @PageValidateSpecialPointer(ptr noundef %0) #3 {
  %2 = alloca ptr, align 8
  store ptr %0, ptr %2, align 8
  ret void
}

; Function Attrs: inlinehint nounwind uwtable
define internal ptr @BufferGetPage(i32 noundef %0) #3 {
  %2 = alloca i32, align 4
  store i32 %0, ptr %2, align 4
  %3 = load i32, ptr %2, align 4
  %4 = call ptr @BufferGetBlock(i32 noundef %3)
  ret ptr %4
}

; Function Attrs: nounwind uwtable
define dso_local void @_bt_finish_split(ptr noundef %0, ptr noundef %1, i32 noundef %2, ptr noundef %3) #0 {
  %5 = alloca ptr, align 8
  %6 = alloca ptr, align 8
  %7 = alloca i32, align 4
  %8 = alloca ptr, align 8
  %9 = alloca ptr, align 8
  %10 = alloca ptr, align 8
  %11 = alloca i32, align 4
  %12 = alloca ptr, align 8
  %13 = alloca ptr, align 8
  %14 = alloca i8, align 1
  %15 = alloca i8, align 1
  %16 = alloca i32, align 4
  %17 = alloca ptr, align 8
  %18 = alloca ptr, align 8
  store ptr %0, ptr %5, align 8
  store ptr %1, ptr %6, align 8
  store i32 %2, ptr %7, align 4
  store ptr %3, ptr %8, align 8
  call void @llvm.lifetime.start.p0(i64 8, ptr %9) #8
  %19 = load i32, ptr %7, align 4
  %20 = call ptr @BufferGetPage(i32 noundef %19)
  store ptr %20, ptr %9, align 8
  call void @llvm.lifetime.start.p0(i64 8, ptr %10) #8
  %21 = load ptr, ptr %9, align 8
  call void @PageValidateSpecialPointer(ptr noundef %21)
  %22 = load ptr, ptr %9, align 8
  %23 = load ptr, ptr %9, align 8
  %24 = getelementptr inbounds nuw %struct.PageHeaderData, ptr %23, i32 0, i32 5
  %25 = load i16, ptr %24, align 4
  %26 = zext i16 %25 to i32
  %27 = sext i32 %26 to i64
  %28 = getelementptr inbounds i8, ptr %22, i64 %27
  store ptr %28, ptr %10, align 8
  call void @llvm.lifetime.start.p0(i64 4, ptr %11) #8
  call void @llvm.lifetime.start.p0(i64 8, ptr %12) #8
  call void @llvm.lifetime.start.p0(i64 8, ptr %13) #8
  call void @llvm.lifetime.start.p0(i64 1, ptr %14) #8
  call void @llvm.lifetime.start.p0(i64 1, ptr %15) #8
  %29 = load ptr, ptr %5, align 8
  %30 = load ptr, ptr %10, align 8
  %31 = getelementptr inbounds nuw %struct.BTPageOpaqueData, ptr %30, i32 0, i32 1
  %32 = load i32, ptr %31, align 4
  %33 = call i32 @_bt_getbuf(ptr noundef %29, i32 noundef %32, i32 noundef 2)
  store i32 %33, ptr %11, align 4
  %34 = load i32, ptr %11, align 4
  %35 = call ptr @BufferGetPage(i32 noundef %34)
  store ptr %35, ptr %12, align 8
  %36 = load ptr, ptr %12, align 8
  call void @PageValidateSpecialPointer(ptr noundef %36)
  %37 = load ptr, ptr %12, align 8
  %38 = load ptr, ptr %12, align 8
  %39 = getelementptr inbounds nuw %struct.PageHeaderData, ptr %38, i32 0, i32 5
  %40 = load i16, ptr %39, align 4
  %41 = zext i16 %40 to i32
  %42 = sext i32 %41 to i64
  %43 = getelementptr inbounds i8, ptr %37, i64 %42
  store ptr %43, ptr %13, align 8
  %44 = load ptr, ptr %8, align 8
  %45 = icmp ne ptr %44, null
  br i1 %45, label %62, label %46

46:                                               ; preds = %4
  call void @llvm.lifetime.start.p0(i64 4, ptr %16) #8
  call void @llvm.lifetime.start.p0(i64 8, ptr %17) #8
  call void @llvm.lifetime.start.p0(i64 8, ptr %18) #8
  %47 = load ptr, ptr %5, align 8
  %48 = call i32 @_bt_getbuf(ptr noundef %47, i32 noundef 0, i32 noundef 2)
  store i32 %48, ptr %16, align 4
  %49 = load i32, ptr %16, align 4
  %50 = call ptr @BufferGetPage(i32 noundef %49)
  store ptr %50, ptr %17, align 8
  %51 = load ptr, ptr %17, align 8
  %52 = call ptr @PageGetContents(ptr noundef %51)
  store ptr %52, ptr %18, align 8
  %53 = load ptr, ptr %18, align 8
  %54 = getelementptr inbounds nuw %struct.BTMetaPageData, ptr %53, i32 0, i32 2
  %55 = load i32, ptr %54, align 8
  %56 = load i32, ptr %7, align 4
  %57 = call i32 @BufferGetBlockNumber(i32 noundef %56)
  %58 = icmp eq i32 %55, %57
  %59 = zext i1 %58 to i8
  store i8 %59, ptr %14, align 1
  %60 = load ptr, ptr %5, align 8
  %61 = load i32, ptr %16, align 4
  call void @_bt_relbuf(ptr noundef %60, i32 noundef %61)
  call void @llvm.lifetime.end.p0(i64 8, ptr %18) #8
  call void @llvm.lifetime.end.p0(i64 8, ptr %17) #8
  call void @llvm.lifetime.end.p0(i64 4, ptr %16) #8
  br label %63

62:                                               ; preds = %4
  store i8 0, ptr %14, align 1
  br label %63

63:                                               ; preds = %62, %46
  %64 = load ptr, ptr %10, align 8
  %65 = getelementptr inbounds nuw %struct.BTPageOpaqueData, ptr %64, i32 0, i32 0
  %66 = load i32, ptr %65, align 4
  %67 = icmp eq i32 %66, 0
  br i1 %67, label %68, label %73

68:                                               ; preds = %63
  %69 = load ptr, ptr %13, align 8
  %70 = getelementptr inbounds nuw %struct.BTPageOpaqueData, ptr %69, i32 0, i32 1
  %71 = load i32, ptr %70, align 4
  %72 = icmp eq i32 %71, 0
  br label %73

73:                                               ; preds = %68, %63
  %74 = phi i1 [ false, %63 ], [ %72, %68 ]
  %75 = zext i1 %74 to i8
  store i8 %75, ptr %15, align 1
  br label %76

76:                                               ; preds = %73
  br i1 false, label %77, label %79

77:                                               ; preds = %76
  %78 = call zeroext i1 @errstart_cold(i32 noundef 14, ptr noundef null) #9
  br i1 %78, label %81, label %87

79:                                               ; preds = %76
  %80 = call zeroext i1 @errstart(i32 noundef 14, ptr noundef null)
  br i1 %80, label %81, label %87

81:                                               ; preds = %79, %77
  %82 = load i32, ptr %7, align 4
  %83 = call i32 @BufferGetBlockNumber(i32 noundef %82)
  %84 = load i32, ptr %11, align 4
  %85 = call i32 @BufferGetBlockNumber(i32 noundef %84)
  %86 = call i32 (ptr, ...) @errmsg_internal(ptr noundef @.str, i32 noundef %83, i32 noundef %85)
  call void @errfinish(ptr noundef @.str.1, i32 noundef 2282, ptr noundef @__func__._bt_finish_split)
  br label %87

87:                                               ; preds = %81, %79, %77
  br label %88

88:                                               ; preds = %87
  br label %89

89:                                               ; preds = %88
  %90 = load ptr, ptr %5, align 8
  %91 = load ptr, ptr %6, align 8
  %92 = load i32, ptr %7, align 4
  %93 = load i32, ptr %11, align 4
  %94 = load ptr, ptr %8, align 8
  %95 = load i8, ptr %14, align 1, !range !4, !noundef !5
  %96 = trunc i8 %95 to i1
  %97 = load i8, ptr %15, align 1, !range !4, !noundef !5
  %98 = trunc i8 %97 to i1
  call void @_bt_insert_parent(ptr noundef %90, ptr noundef %91, i32 noundef %92, i32 noundef %93, ptr noundef %94, i1 noundef zeroext %96, i1 noundef zeroext %98)
  call void @llvm.lifetime.end.p0(i64 1, ptr %15) #8
  call void @llvm.lifetime.end.p0(i64 1, ptr %14) #8
  call void @llvm.lifetime.end.p0(i64 8, ptr %13) #8
  call void @llvm.lifetime.end.p0(i64 8, ptr %12) #8
  call void @llvm.lifetime.end.p0(i64 4, ptr %11) #8
  call void @llvm.lifetime.end.p0(i64 8, ptr %10) #8
  call void @llvm.lifetime.end.p0(i64 8, ptr %9) #8
  ret void
}