; Function Attrs: nounwind uwtable
define dso_local void @_bt_finish_split(ptr noundef %0, ptr noundef %1, i32 noundef %2, ptr noundef %3) local_unnamed_addr #0 {
  %5 = icmp slt i32 %2, 0
  br i1 %5, label %6, label %12

6:                                                ; preds = %4
  %7 = load ptr, ptr @LocalBufferBlockPointers, align 8
  %8 = xor i32 %2, -1
  %9 = zext nneg i32 %8 to i64
  %10 = getelementptr inbounds nuw ptr, ptr %7, i64 %9
  %11 = load ptr, ptr %10, align 8
  br label %BufferGetPage.exit

12:                                               ; preds = %4
  %13 = load ptr, ptr @BufferBlocks, align 8
  %14 = add nsw i32 %2, -1
  %15 = sext i32 %14 to i64
  %16 = shl nsw i64 %15, 13
  %17 = getelementptr inbounds nuw i8, ptr %13, i64 %16
  br label %BufferGetPage.exit

BufferGetPage.exit:                               ; preds = %6, %12
  %.0.i.i = phi ptr [ %11, %6 ], [ %17, %12 ]
  %18 = getelementptr inbounds nuw i8, ptr %.0.i.i, i64 16
  %19 = load i16, ptr %18, align 4
  %20 = zext i16 %19 to i64
  %21 = getelementptr inbounds nuw i8, ptr %.0.i.i, i64 %20
  %22 = getelementptr inbounds nuw i8, ptr %21, i64 4
  %23 = load i32, ptr %22, align 4
  %24 = tail call i32 @_bt_getbuf(ptr noundef %0, i32 noundef %23, i32 noundef 2) #9
  %25 = icmp slt i32 %24, 0
  br i1 %25, label %26, label %32

26:                                               ; preds = %BufferGetPage.exit
  %27 = load ptr, ptr @LocalBufferBlockPointers, align 8
  %28 = xor i32 %24, -1
  %29 = zext nneg i32 %28 to i64
  %30 = getelementptr inbounds nuw ptr, ptr %27, i64 %29
  %31 = load ptr, ptr %30, align 8
  br label %BufferGetPage.exit29

32:                                               ; preds = %BufferGetPage.exit
  %33 = load ptr, ptr @BufferBlocks, align 8
  %34 = add nsw i32 %24, -1
  %35 = sext i32 %34 to i64
  %36 = shl nsw i64 %35, 13
  %37 = getelementptr inbounds nuw i8, ptr %33, i64 %36
  br label %BufferGetPage.exit29

BufferGetPage.exit29:                             ; preds = %26, %32
  %.0.i.i28 = phi ptr [ %31, %26 ], [ %37, %32 ]
  %38 = getelementptr inbounds nuw i8, ptr %.0.i.i28, i64 16
  %39 = load i16, ptr %38, align 4
  %40 = zext i16 %39 to i64
  %41 = getelementptr inbounds nuw i8, ptr %.0.i.i28, i64 %40
  %.not = icmp eq ptr %3, null
  br i1 %.not, label %42, label %61

42:                                               ; preds = %BufferGetPage.exit29
  %43 = tail call i32 @_bt_getbuf(ptr noundef %0, i32 noundef 0, i32 noundef 2) #9
  %44 = icmp slt i32 %43, 0
  br i1 %44, label %45, label %51

45:                                               ; preds = %42
  %46 = load ptr, ptr @LocalBufferBlockPointers, align 8
  %47 = xor i32 %43, -1
  %48 = zext nneg i32 %47 to i64
  %49 = getelementptr inbounds nuw ptr, ptr %46, i64 %48
  %50 = load ptr, ptr %49, align 8
  br label %BufferGetPage.exit31

51:                                               ; preds = %42
  %52 = load ptr, ptr @BufferBlocks, align 8
  %53 = add nsw i32 %43, -1
  %54 = sext i32 %53 to i64
  %55 = shl nsw i64 %54, 13
  %56 = getelementptr inbounds nuw i8, ptr %52, i64 %55
  br label %BufferGetPage.exit31

BufferGetPage.exit31:                             ; preds = %45, %51
  %.0.i.i30 = phi ptr [ %50, %45 ], [ %56, %51 ]
  %57 = getelementptr inbounds nuw i8, ptr %.0.i.i30, i64 32
  %58 = load i32, ptr %57, align 8
  %59 = tail call i32 @BufferGetBlockNumber(i32 noundef %2) #9
  %60 = icmp eq i32 %58, %59
  tail call void @_bt_relbuf(ptr noundef %0, i32 noundef %43) #9
  br label %61

61:                                               ; preds = %BufferGetPage.exit29, %BufferGetPage.exit31
  %.0 = phi i1 [ %60, %BufferGetPage.exit31 ], [ false, %BufferGetPage.exit29 ]
  %62 = load i32, ptr %21, align 4
  %63 = icmp eq i32 %62, 0
  br i1 %63, label %64, label %68

64:                                               ; preds = %61
  %65 = getelementptr inbounds nuw i8, ptr %41, i64 4
  %66 = load i32, ptr %65, align 4
  %67 = icmp eq i32 %66, 0
  br label %68

68:                                               ; preds = %64, %61
  %69 = phi i1 [ false, %61 ], [ %67, %64 ]
  %70 = tail call zeroext i1 @errstart(i32 noundef 14, ptr noundef null) #9
  br i1 %70, label %71, label %75

71:                                               ; preds = %68
  %72 = tail call i32 @BufferGetBlockNumber(i32 noundef %2) #9
  %73 = tail call i32 @BufferGetBlockNumber(i32 noundef %24) #9
  %74 = tail call i32 (ptr, ...) @errmsg_internal(ptr noundef nonnull @.str, i32 noundef %72, i32 noundef %73) #9
  tail call void @errfinish(ptr noundef nonnull @.str.1, i32 noundef 2282, ptr noundef nonnull @__func__._bt_finish_split) #9
  br label %75

75:                                               ; preds = %71, %68
  tail call fastcc void @_bt_insert_parent(ptr noundef %0, ptr noundef %1, i32 noundef %2, i32 noundef %24, ptr noundef %3, i1 noundef zeroext %.0, i1 noundef zeroext %69)
  ret void
}